target datalayout = "e-m:e-p270:32:32-p271:32:32-p272:64:64-i64:64-i128:128-f80:128-n8:16:32:64-S128"
target triple = "x86_64-pc-linux-gnu"

%struct.archive_read = type { %struct.archive, ptr, i32, i64, i64, %struct.archive_read_client, [16 x %struct.archive_read_filter_bidder], ptr, i32, i64, i32, i32, [16 x %struct.archive_format_descriptor], ptr, ptr, ptr, %struct.anon }
%struct.archive = type { i32, i32, ptr, i32, ptr, i32, i32, ptr, %struct.archive_string, ptr, i32, i32, ptr, ptr, i64, i64, i64, i8, i64 }
%struct.archive_string = type { ptr, i64, i64 }
%struct.archive_read_client = type { ptr, ptr, ptr, ptr, ptr, ptr, i32, i32, i64, ptr }
%struct.archive_read_filter_bidder = type { ptr, ptr, ptr }
%struct.archive_format_descriptor = type { ptr, ptr, ptr, ptr, ptr, ptr, ptr, ptr, ptr, ptr, ptr }
%struct.anon = type { ptr, ptr, i32, ptr, ptr }
%struct.rar = type { i32, i64, [2 x i8], [4 x i8], i8, i8, i32, i64, i64, i64, i64, i32, ptr, ptr, i64, i64, [8 x i8], i64, i64, i64, i64, i64, i64, i64, i64, i64, i64, i64, i64, i8, i32, i32, ptr, i32, i8, i8, i64, i32, i8, ptr, i32, i32, i8, %struct.huffman_code, %struct.huffman_code, %struct.huffman_code, %struct.huffman_code, [404 x i8], %struct.lzss, i32, i32, [4 x i32], i32, i32, i8, %struct.rar_filters, i8, i8, i8, i32, %struct.CPpmd7, %struct.CPpmd7z_RangeDec, %struct.IByteIn, i32, ptr, ptr, ptr, ptr, %struct.rar_br, i32 }
%struct.huffman_code = type { ptr, i32, i32, i32, i32, i32, ptr }
%struct.lzss = type { ptr, i32, i64 }
%struct.rar_filters = type { ptr, ptr, ptr, i64, i32, i64, ptr, i64 }
%struct.CPpmd7 = type { ptr, ptr, ptr, i32, i32, i32, i32, i32, i32, i32, i32, i32, ptr, ptr, ptr, ptr, ptr, i32, [38 x i8], [128 x i8], [38 x i32], [256 x i8], [256 x i8], [256 x i8], %struct.CPpmd_See, [25 x [16 x %struct.CPpmd_See]], [128 x [64 x i16]] }
%struct.CPpmd_See = type { i16, i8, i8 }
%struct.CPpmd7z_RangeDec = type { %struct.IPpmd7_RangeDec, i32, i32, i32, i32, ptr }
%struct.IPpmd7_RangeDec = type { ptr, ptr, ptr }
%struct.IByteIn = type { ptr, ptr }
%struct.rar_br = type { i64, i32, i64, ptr }
%struct.huffman_table_entry = type { i32, i32 }
%struct.huffman_tree_node = type { [2 x i32] }

@.str.32 = private unnamed_addr constant [24 x i8] c"Truncated RAR file data\00", align 1
@.str.47 = private unnamed_addr constant [33 x i8] c"Invalid prefix code in bitstream\00", align 1

; Function Attrs: nounwind uwtable
define internal i32 @make_table(ptr noundef %0, ptr noundef %1) #0 {
  %3 = alloca ptr, align 8
  %4 = alloca ptr, align 8
  store ptr %0, ptr %3, align 8
  store ptr %1, ptr %4, align 8
  %5 = load ptr, ptr %4, align 8
  %6 = getelementptr inbounds %struct.huffman_code, ptr %5, i32 0, i32 4
  %7 = load i32, ptr %6, align 4
  %8 = load ptr, ptr %4, align 8
  %9 = getelementptr inbounds %struct.huffman_code, ptr %8, i32 0, i32 3
  %10 = load i32, ptr %9, align 8
  %11 = icmp slt i32 %7, %10
  br i1 %11, label %17, label %12

12:                                               ; preds = %2
  %13 = load ptr, ptr %4, align 8
  %14 = getelementptr inbounds %struct.huffman_code, ptr %13, i32 0, i32 4
  %15 = load i32, ptr %14, align 4
  %16 = icmp sgt i32 %15, 10
  br i1 %16, label %17, label %20

17:                                               ; preds = %12, %2
  %18 = load ptr, ptr %4, align 8
  %19 = getelementptr inbounds %struct.huffman_code, ptr %18, i32 0, i32 5
  store i32 10, ptr %19, align 8
  br label %26

20:                                               ; preds = %12
  %21 = load ptr, ptr %4, align 8
  %22 = getelementptr inbounds %struct.huffman_code, ptr %21, i32 0, i32 4
  %23 = load i32, ptr %22, align 4
  %24 = load ptr, ptr %4, align 8
  %25 = getelementptr inbounds %struct.huffman_code, ptr %24, i32 0, i32 5
  store i32 %23, ptr %25, align 8
  br label %26

26:                                               ; preds = %20, %17
  %27 = load ptr, ptr %4, align 8
  %28 = getelementptr inbounds %struct.huffman_code, ptr %27, i32 0, i32 5
  %29 = load i32, ptr %28, align 8
  %30 = zext i32 %29 to i64
  %31 = shl i64 1, %30
  %32 = mul i64 8, %31
  %33 = call noalias ptr @calloc(i64 noundef 1, i64 noundef %32) #11
  %34 = load ptr, ptr %4, align 8
  %35 = getelementptr inbounds %struct.huffman_code, ptr %34, i32 0, i32 6
  store ptr %33, ptr %35, align 8
  %36 = load ptr, ptr %3, align 8
  %37 = load ptr, ptr %4, align 8
  %38 = load ptr, ptr %4, align 8
  %39 = getelementptr inbounds %struct.huffman_code, ptr %38, i32 0, i32 6
  %40 = load ptr, ptr %39, align 8
  %41 = load ptr, ptr %4, align 8
  %42 = getelementptr inbounds %struct.huffman_code, ptr %41, i32 0, i32 5
  %43 = load i32, ptr %42, align 8
  %44 = call i32 @make_table_recurse(ptr noundef %36, ptr noundef %37, i32 noundef 0, ptr noundef %40, i32 noundef 0, i32 noundef %43)
  ret i32 %44
}

; Function Attrs: nounwind uwtable
define internal i32 @read_next_symbol(ptr noundef %0, ptr noundef %1) #0 {
  %3 = alloca i32, align 4
  %4 = alloca ptr, align 8
  %5 = alloca ptr, align 8
  %6 = alloca i8, align 1
  %7 = alloca i32, align 4
  %8 = alloca i32, align 4
  %9 = alloca i32, align 4
  %10 = alloca i32, align 4
  %11 = alloca ptr, align 8
  %12 = alloca ptr, align 8
  store ptr %0, ptr %4, align 8
  store ptr %1, ptr %5, align 8
  %13 = load ptr, ptr %5, align 8
  %14 = getelementptr inbounds %struct.huffman_code, ptr %13, i32 0, i32 6
  %15 = load ptr, ptr %14, align 8
  %16 = icmp ne ptr %15, null
  br i1 %16, label %24, label %17

17:                                               ; preds = %2
  %18 = load ptr, ptr %4, align 8
  %19 = load ptr, ptr %5, align 8
  %20 = call i32 @make_table(ptr noundef %18, ptr noundef %19)
  %21 = icmp ne i32 %20, 0
  br i1 %21, label %22, label %23

22:                                               ; preds = %17
  store i32 -1, ptr %3, align 4
  br label %218

23:                                               ; preds = %17
  br label %24

24:                                               ; preds = %23, %2
  %25 = load ptr, ptr %4, align 8
  %26 = getelementptr inbounds %struct.archive_read, ptr %25, i32 0, i32 13
  %27 = load ptr, ptr %26, align 8
  %28 = getelementptr inbounds %struct.archive_format_descriptor, ptr %27, i32 0, i32 0
  %29 = load ptr, ptr %28, align 8
  store ptr %29, ptr %11, align 8
  %30 = load ptr, ptr %11, align 8
  %31 = getelementptr inbounds %struct.rar, ptr %30, i32 0, i32 68
  store ptr %31, ptr %12, align 8
  %32 = load ptr, ptr %12, align 8
  %33 = getelementptr inbounds %struct.rar_br, ptr %32, i32 0, i32 1
  %34 = load i32, ptr %33, align 8
  %35 = load ptr, ptr %5, align 8
  %36 = getelementptr inbounds %struct.huffman_code, ptr %35, i32 0, i32 5
  %37 = load i32, ptr %36, align 8
  %38 = icmp sge i32 %34, %37
  br i1 %38, label %57, label %39

39:                                               ; preds = %24
  %40 = load ptr, ptr %4, align 8
  %41 = load ptr, ptr %12, align 8
  %42 = call i32 @rar_br_fillup(ptr noundef %40, ptr noundef %41)
  %43 = icmp ne i32 %42, 0
  br i1 %43, label %57, label %44

44:                                               ; preds = %39
  %45 = load ptr, ptr %12, align 8
  %46 = getelementptr inbounds %struct.rar_br, ptr %45, i32 0, i32 1
  %47 = load i32, ptr %46, align 8
  %48 = load ptr, ptr %5, align 8
  %49 = getelementptr inbounds %struct.huffman_code, ptr %48, i32 0, i32 5
  %50 = load i32, ptr %49, align 8
  %51 = icmp sge i32 %47, %50
  br i1 %51, label %57, label %52

52:                                               ; preds = %44
  %53 = load ptr, ptr %4, align 8
  %54 = getelementptr inbounds %struct.archive_read, ptr %53, i32 0, i32 0
  call void (ptr, i32, ptr, ...) @archive_set_error(ptr noundef %54, i32 noundef 84, ptr noundef @.str.32)
  %55 = load ptr, ptr %11, align 8
  %56 = getelementptr inbounds %struct.rar, ptr %55, i32 0, i32 29
  store i8 0, ptr %56, align 8
  store i32 -1, ptr %3, align 4
  br label %218

57:                                               ; preds = %44, %39, %24
  %58 = load ptr, ptr %12, align 8
  %59 = getelementptr inbounds %struct.rar_br, ptr %58, i32 0, i32 0
  %60 = load i64, ptr %59, align 8
  %61 = load ptr, ptr %12, align 8
  %62 = getelementptr inbounds %struct.rar_br, ptr %61, i32 0, i32 1
  %63 = load i32, ptr %62, align 8
  %64 = load ptr, ptr %5, align 8
  %65 = getelementptr inbounds %struct.huffman_code, ptr %64, i32 0, i32 5
  %66 = load i32, ptr %65, align 8
  %67 = sub nsw i32 %63, %66
  %68 = zext i32 %67 to i64
  %69 = lshr i64 %60, %68
  %70 = trunc i64 %69 to i32
  %71 = load ptr, ptr %5, align 8
  %72 = getelementptr inbounds %struct.huffman_code, ptr %71, i32 0, i32 5
  %73 = load i32, ptr %72, align 8
  %74 = sext i32 %73 to i64
  %75 = getelementptr inbounds [36 x i32], ptr @cache_masks, i64 0, i64 %74
  %76 = load i32, ptr %75, align 4
  %77 = and i32 %70, %76
  store i32 %77, ptr %7, align 4
  %78 = load ptr, ptr %5, align 8
  %79 = getelementptr inbounds %struct.huffman_code, ptr %78, i32 0, i32 6
  %80 = load ptr, ptr %79, align 8
  %81 = load i32, ptr %7, align 4
  %82 = zext i32 %81 to i64
  %83 = getelementptr inbounds %struct.huffman_table_entry, ptr %80, i64 %82
  %84 = getelementptr inbounds %struct.huffman_table_entry, ptr %83, i32 0, i32 0
  %85 = load i32, ptr %84, align 4
  store i32 %85, ptr %8, align 4
  %86 = load ptr, ptr %5, align 8
  %87 = getelementptr inbounds %struct.huffman_code, ptr %86, i32 0, i32 6
  %88 = load ptr, ptr %87, align 8
  %89 = load i32, ptr %7, align 4
  %90 = zext i32 %89 to i64
  %91 = getelementptr inbounds %struct.huffman_table_entry, ptr %88, i64 %90
  %92 = getelementptr inbounds %struct.huffman_table_entry, ptr %91, i32 0, i32 1
  %93 = load i32, ptr %92, align 4
  store i32 %93, ptr %9, align 4
  %94 = load i32, ptr %8, align 4
  %95 = icmp slt i32 %94, 0
  br i1 %95, label %96, label %99

96:                                               ; preds = %57
  %97 = load ptr, ptr %4, align 8
  %98 = getelementptr inbounds %struct.archive_read, ptr %97, i32 0, i32 0
  call void (ptr, i32, ptr, ...) @archive_set_error(ptr noundef %98, i32 noundef 84, ptr noundef @.str.47)
  store i32 -1, ptr %3, align 4
  br label %218

99:                                               ; preds = %57
  %100 = load i32, ptr %8, align 4
  %101 = load ptr, ptr %5, align 8
  %102 = getelementptr inbounds %struct.huffman_code, ptr %101, i32 0, i32 5
  %103 = load i32, ptr %102, align 8
  %104 = icmp sle i32 %100, %103
  br i1 %104, label %105, label %112

105:                                              ; preds = %99
  %106 = load i32, ptr %8, align 4
  %107 = load ptr, ptr %12, align 8
  %108 = getelementptr inbounds %struct.rar_br, ptr %107, i32 0, i32 1
  %109 = load i32, ptr %108, align 8
  %110 = sub nsw i32 %109, %106
  store i32 %110, ptr %108, align 8
  %111 = load i32, ptr %9, align 4
  store i32 %111, ptr %3, align 4
  br label %218

112:                                              ; preds = %99
  %113 = load ptr, ptr %5, align 8
  %114 = getelementptr inbounds %struct.huffman_code, ptr %113, i32 0, i32 5
  %115 = load i32, ptr %114, align 8
  %116 = load ptr, ptr %12, align 8
  %117 = getelementptr inbounds %struct.rar_br, ptr %116, i32 0, i32 1
  %118 = load i32, ptr %117, align 8
  %119 = sub nsw i32 %118, %115
  store i32 %119, ptr %117, align 8
  %120 = load i32, ptr %9, align 4
  store i32 %120, ptr %10, align 4
  br label %121

121:                                              ; preds = %196, %112
  %122 = load ptr, ptr %5, align 8
  %123 = getelementptr inbounds %struct.huffman_code, ptr %122, i32 0, i32 0
  %124 = load ptr, ptr %123, align 8
  %125 = load i32, ptr %10, align 4
  %126 = sext i32 %125 to i64
  %127 = getelementptr inbounds %struct.huffman_tree_node, ptr %124, i64 %126
  %128 = getelementptr inbounds %struct.huffman_tree_node, ptr %127, i32 0, i32 0
  %129 = getelementptr inbounds [2 x i32], ptr %128, i64 0, i64 0
  %130 = load i32, ptr %129, align 4
  %131 = load ptr, ptr %5, align 8
  %132 = getelementptr inbounds %struct.huffman_code, ptr %131, i32 0, i32 0
  %133 = load ptr, ptr %132, align 8
  %134 = load i32, ptr %10, align 4
  %135 = sext i32 %134 to i64
  %136 = getelementptr inbounds %struct.huffman_tree_node, ptr %133, i64 %135
  %137 = getelementptr inbounds %struct.huffman_tree_node, ptr %136, i32 0, i32 0
  %138 = getelementptr inbounds [2 x i32], ptr %137, i64 0, i64 1
  %139 = load i32, ptr %138, align 4
  %140 = icmp eq i32 %130, %139
  %141 = xor i1 %140, true
  br i1 %141, label %142, label %208

142:                                              ; preds = %121
  %143 = load ptr, ptr %12, align 8
  %144 = getelementptr inbounds %struct.rar_br, ptr %143, i32 0, i32 1
  %145 = load i32, ptr %144, align 8
  %146 = icmp sge i32 %145, 1
  br i1 %146, label %162, label %147

147:                                              ; preds = %142
  %148 = load ptr, ptr %4, align 8
  %149 = load ptr, ptr %12, align 8
  %150 = call i32 @rar_br_fillup(ptr noundef %148, ptr noundef %149)
  %151 = icmp ne i32 %150, 0
  br i1 %151, label %162, label %152

152:                                              ; preds = %147
  %153 = load ptr, ptr %12, align 8
  %154 = getelementptr inbounds %struct.rar_br, ptr %153, i32 0, i32 1
  %155 = load i32, ptr %154, align 8
  %156 = icmp sge i32 %155, 1
  br i1 %156, label %162, label %157

157:                                              ; preds = %152
  %158 = load ptr, ptr %4, align 8
  %159 = getelementptr inbounds %struct.archive_read, ptr %158, i32 0, i32 0
  call void (ptr, i32, ptr, ...) @archive_set_error(ptr noundef %159, i32 noundef 84, ptr noundef @.str.32)
  %160 = load ptr, ptr %11, align 8
  %161 = getelementptr inbounds %struct.rar, ptr %160, i32 0, i32 29
  store i8 0, ptr %161, align 8
  store i32 -1, ptr %3, align 4
  br label %218

162:                                              ; preds = %152, %147, %142
  %163 = load ptr, ptr %12, align 8
  %164 = getelementptr inbounds %struct.rar_br, ptr %163, i32 0, i32 0
  %165 = load i64, ptr %164, align 8
  %166 = load ptr, ptr %12, align 8
  %167 = getelementptr inbounds %struct.rar_br, ptr %166, i32 0, i32 1
  %168 = load i32, ptr %167, align 8
  %169 = sub nsw i32 %168, 1
  %170 = zext i32 %169 to i64
  %171 = lshr i64 %165, %170
  %172 = trunc i64 %171 to i32
  %173 = getelementptr inbounds [36 x i32], ptr @cache_masks, i64 0, i64 1
  %174 = load i32, ptr %173, align 4
  %175 = and i32 %172, %174
  %176 = trunc i32 %175 to i8
  store i8 %176, ptr %6, align 1
  %177 = load ptr, ptr %12, align 8
  %178 = getelementptr inbounds %struct.rar_br, ptr %177, i32 0, i32 1
  %179 = load i32, ptr %178, align 8
  %180 = sub nsw i32 %179, 1
  store i32 %180, ptr %178, align 8
  %181 = load ptr, ptr %5, align 8
  %182 = getelementptr inbounds %struct.huffman_code, ptr %181, i32 0, i32 0
  %183 = load ptr, ptr %182, align 8
  %184 = load i32, ptr %10, align 4
  %185 = sext i32 %184 to i64
  %186 = getelementptr inbounds %struct.huffman_tree_node, ptr %183, i64 %185
  %187 = getelementptr inbounds %struct.huffman_tree_node, ptr %186, i32 0, i32 0
  %188 = load i8, ptr %6, align 1
  %189 = zext i8 %188 to i64
  %190 = getelementptr inbounds [2 x i32], ptr %187, i64 0, i64 %189
  %191 = load i32, ptr %190, align 4
  %192 = icmp slt i32 %191, 0
  br i1 %192, label %193, label %196

193:                                              ; preds = %162
  %194 = load ptr, ptr %4, align 8
  %195 = getelementptr inbounds %struct.archive_read, ptr %194, i32 0, i32 0
  call void (ptr, i32, ptr, ...) @archive_set_error(ptr noundef %195, i32 noundef 84, ptr noundef @.str.47)
  store i32 -1, ptr %3, align 4
  br label %218

196:                                              ; preds = %162
  %197 = load ptr, ptr %5, align 8
  %198 = getelementptr inbounds %struct.huffman_code, ptr %197, i32 0, i32 0
  %199 = load ptr, ptr %198, align 8
  %200 = load i32, ptr %10, align 4
  %201 = sext i32 %200 to i64
  %202 = getelementptr inbounds %struct.huffman_tree_node, ptr %199, i64 %201
  %203 = getelementptr inbounds %struct.huffman_tree_node, ptr %202, i32 0, i32 0
  %204 = load i8, ptr %6, align 1
  %205 = zext i8 %204 to i64
  %206 = getelementptr inbounds [2 x i32], ptr %203, i64 0, i64 %205
  %207 = load i32, ptr %206, align 4
  store i32 %207, ptr %10, align 4
  br label %121, !llvm.loop !46

208:                                              ; preds = %121
  %209 = load ptr, ptr %5, align 8
  %210 = getelementptr inbounds %struct.huffman_code, ptr %209, i32 0, i32 0
  %211 = load ptr, ptr %210, align 8
  %212 = load i32, ptr %10, align 4
  %213 = sext i32 %212 to i64
  %214 = getelementptr inbounds %struct.huffman_tree_node, ptr %211, i64 %213
  %215 = getelementptr inbounds %struct.huffman_tree_node, ptr %214, i32 0, i32 0
  %216 = getelementptr inbounds [2 x i32], ptr %215, i64 0, i64 0
  %217 = load i32, ptr %216, align 4
  store i32 %217, ptr %3, align 4
  br label %218

218:                                              ; preds = %208, %193, %157, %105, %96, %52, %22
  %219 = load i32, ptr %3, align 4
  ret i32 %219
}