; Function Attrs: nounwind uwtable
define internal fastcc i32 @read_next_symbol(ptr noundef %0, ptr noundef captures(none) %1) unnamed_addr #0 {
  %3 = getelementptr inbounds nuw i8, ptr %1, i64 32
  %4 = load ptr, ptr %3, align 8
  %.not = icmp eq ptr %4, null
  br i1 %.not, label %5, label %17

5:                                                ; preds = %2
  %6 = getelementptr inbounds nuw i8, ptr %1, i64 20
  %7 = load i32, ptr %6, align 4
  %8 = getelementptr inbounds nuw i8, ptr %1, i64 16
  %9 = load i32, ptr %8, align 8
  %10 = icmp slt i32 %7, %9
  %11 = tail call i32 @llvm.smin.i32(i32 %7, i32 10)
  %spec.select.i = select i1 %10, i32 10, i32 %11
  %12 = getelementptr inbounds nuw i8, ptr %1, i64 24
  store i32 %spec.select.i, ptr %12, align 8
  %13 = zext nneg i32 %spec.select.i to i64
  %14 = shl i64 8, %13
  %15 = tail call noalias ptr @calloc(i64 noundef 1, i64 noundef %14) #20
  store ptr %15, ptr %3, align 8
  %16 = tail call fastcc i32 @make_table_recurse(ptr noundef %0, ptr noundef nonnull %1, i32 noundef 0, ptr noundef %15, i32 noundef 0, i32 noundef %spec.select.i)
  %.not56 = icmp eq i32 %16, 0
  br i1 %.not56, label %17, label %.loopexit

17:                                               ; preds = %5, %2
  %18 = getelementptr inbounds nuw i8, ptr %0, i64 2072
  %19 = load ptr, ptr %18, align 8
  %20 = load ptr, ptr %19, align 8
  %21 = getelementptr inbounds nuw i8, ptr %20, i64 20272
  %22 = getelementptr inbounds nuw i8, ptr %20, i64 20280
  %23 = load i32, ptr %22, align 8
  %24 = getelementptr inbounds nuw i8, ptr %1, i64 24
  %25 = load i32, ptr %24, align 8
  %.not57 = icmp slt i32 %23, %25
  br i1 %.not57, label %26, label %30

26:                                               ; preds = %17
  %27 = tail call fastcc i32 @rar_br_fillup(ptr noundef nonnull %0, ptr noundef nonnull %21)
  %.not58 = icmp eq i32 %27, 0
  %.pre = load i32, ptr %22, align 8
  %.pre67 = load i32, ptr %24, align 8
  %.not59 = icmp slt i32 %.pre, %.pre67
  %or.cond = select i1 %.not58, i1 %.not59, i1 false
  br i1 %or.cond, label %28, label %30

28:                                               ; preds = %26
  tail call void (ptr, i32, ptr, ...) @archive_set_error(ptr noundef nonnull %0, i32 noundef 84, ptr noundef nonnull @.str.32) #19
  %29 = getelementptr inbounds nuw i8, ptr %20, i64 208
  store i8 0, ptr %29, align 8
  br label %.loopexit

30:                                               ; preds = %26, %17
  %31 = phi i32 [ %.pre67, %26 ], [ %25, %17 ]
  %32 = phi i32 [ %.pre, %26 ], [ %23, %17 ]
  %33 = load i64, ptr %21, align 8
  %34 = sub nsw i32 %32, %31
  %35 = zext nneg i32 %34 to i64
  %36 = lshr i64 %33, %35
  %37 = trunc i64 %36 to i32
  %38 = sext i32 %31 to i64
  %39 = getelementptr inbounds [36 x i32], ptr @cache_masks, i64 0, i64 %38
  %40 = load i32, ptr %39, align 4
  %41 = and i32 %40, %37
  %42 = load ptr, ptr %3, align 8
  %43 = zext i32 %41 to i64
  %44 = getelementptr inbounds nuw %struct.huffman_table_entry, ptr %42, i64 %43
  %45 = load i32, ptr %44, align 4
  %46 = getelementptr inbounds nuw i8, ptr %44, i64 4
  %47 = load i32, ptr %46, align 4
  %48 = icmp slt i32 %45, 0
  br i1 %48, label %49, label %50

49:                                               ; preds = %30
  tail call void (ptr, i32, ptr, ...) @archive_set_error(ptr noundef nonnull %0, i32 noundef 84, ptr noundef nonnull @.str.47) #19
  br label %.loopexit

50:                                               ; preds = %30
  %.not60 = icmp sgt i32 %45, %31
  br i1 %.not60, label %53, label %51

51:                                               ; preds = %50
  %52 = sub nsw i32 %32, %45
  store i32 %52, ptr %22, align 8
  br label %.loopexit

53:                                               ; preds = %50
  store i32 %34, ptr %22, align 8
  %.pre68 = load ptr, ptr %1, align 8
  br label %54

54:                                               ; preds = %69, %53
  %55 = phi i32 [ %34, %53 ], [ %72, %69 ]
  %56 = phi ptr [ %.pre68, %53 ], [ %76, %69 ]
  %.053 = phi i32 [ %47, %53 ], [ %79, %69 ]
  %57 = sext i32 %.053 to i64
  %58 = getelementptr inbounds %struct.huffman_tree_node, ptr %56, i64 %57
  %59 = load i32, ptr %58, align 4
  %60 = getelementptr inbounds nuw i8, ptr %58, i64 4
  %61 = load i32, ptr %60, align 4
  %.not61 = icmp eq i32 %59, %61
  br i1 %.not61, label %.loopexit, label %62

62:                                               ; preds = %54
  %63 = icmp sgt i32 %55, 0
  br i1 %63, label %69, label %64

64:                                               ; preds = %62
  %65 = tail call fastcc i32 @rar_br_fillup(ptr noundef %0, ptr noundef nonnull %21)
  %.not62 = icmp ne i32 %65, 0
  %.pre69 = load i32, ptr %22, align 8
  %66 = icmp sgt i32 %.pre69, 0
  %or.cond72 = select i1 %.not62, i1 true, i1 %66
  br i1 %or.cond72, label %69, label %67

67:                                               ; preds = %64
  tail call void (ptr, i32, ptr, ...) @archive_set_error(ptr noundef %0, i32 noundef 84, ptr noundef nonnull @.str.32) #19
  %68 = getelementptr inbounds nuw i8, ptr %20, i64 208
  store i8 0, ptr %68, align 8
  br label %.loopexit

69:                                               ; preds = %64, %62
  %70 = phi i32 [ %.pre69, %64 ], [ %55, %62 ]
  %71 = load i64, ptr %21, align 8
  %72 = add nsw i32 %70, -1
  %73 = zext nneg i32 %72 to i64
  %74 = lshr i64 %71, %73
  %75 = and i64 %74, 1
  store i32 %72, ptr %22, align 8
  %76 = load ptr, ptr %1, align 8
  %77 = getelementptr inbounds %struct.huffman_tree_node, ptr %76, i64 %57
  %78 = getelementptr inbounds nuw [2 x i32], ptr %77, i64 0, i64 %75
  %79 = load i32, ptr %78, align 4
  %80 = icmp slt i32 %79, 0
  br i1 %80, label %81, label %54, !llvm.loop !58

81:                                               ; preds = %69
  tail call void (ptr, i32, ptr, ...) @archive_set_error(ptr noundef %0, i32 noundef 84, ptr noundef nonnull @.str.47) #19
  br label %.loopexit

.loopexit:                                        ; preds = %54, %5, %81, %67, %51, %49, %28
  %.0 = phi i32 [ -1, %49 ], [ %47, %51 ], [ -1, %81 ], [ -1, %67 ], [ -1, %28 ], [ -1, %5 ], [ %59, %54 ]
  ret i32 %.0
}